; Function Attrs: mustprogress uwtable
define noundef zeroext i1 @_ZN6icu_7513LocaleMatcher7Builder27ensureSupportedLocaleVectorEv(ptr noundef nonnull align 8 dereferenceable(64) %this) local_unnamed_addr #2 align 2 personality ptr @__gxx_personality_v0 {
entry:
  %0 = load i32, ptr %this, align 8
  %cmp.i = icmp slt i32 %0, 1
  br i1 %cmp.i, label %if.end, label %return

if.end:                                           ; preds = %entry
  %supportedLocales_ = getelementptr inbounds i8, ptr %this, i64 8
  %1 = load ptr, ptr %supportedLocales_, align 8
  %cmp.not = icmp eq ptr %1, null
  br i1 %cmp.not, label %if.end3, label %return

if.end3:                                          ; preds = %if.end
  %call4 = tail call noundef ptr @_ZN6icu_757UMemorynwEm(i64 noundef 40) #15
  %new.isnull = icmp eq ptr %call4, null
  br i1 %new.isnull, label %new.cont, label %new.notnull

new.notnull:                                      ; preds = %if.end3
  invoke void @_ZN6icu_757UVectorC1EPFvPvEPFa8UElementS4_ER10UErrorCode(ptr noundef nonnull align 8 dereferenceable(40) %call4, ptr noundef nonnull @uprv_deleteUObject_75, ptr noundef null, ptr noundef nonnull align 4 dereferenceable(4) %this)
          to label %_ZN6icu_7512LocalPointerINS_7UVectorEEC2EPS1_R10UErrorCode.exit unwind label %lpad

new.cont:                                         ; preds = %if.end3
  %2 = load i32, ptr %this, align 8
  %cmp.i.i = icmp sgt i32 %2, 0
  br i1 %cmp.i.i, label %return, label %if.then.i

if.then.i:                                        ; preds = %new.cont
  store i32 7, ptr %this, align 8
  br label %return

_ZN6icu_7512LocalPointerINS_7UVectorEEC2EPS1_R10UErrorCode.exit: ; preds = %new.notnull
  %.pre = load i32, ptr %this, align 8
  %3 = icmp slt i32 %.pre, 1
  br i1 %3, label %cleanup.thread, label %delete.notnull.i

lpad:                                             ; preds = %new.notnull
  %4 = landingpad { ptr, i32 }
          cleanup
  tail call void @_ZN6icu_757UMemorydlEPv(ptr noundef nonnull %call4) #15
  resume { ptr, i32 } %4

cleanup.thread:                                   ; preds = %_ZN6icu_7512LocalPointerINS_7UVectorEEC2EPS1_R10UErrorCode.exit
  store ptr %call4, ptr %supportedLocales_, align 8
  br label %return

delete.notnull.i:                                 ; preds = %_ZN6icu_7512LocalPointerINS_7UVectorEEC2EPS1_R10UErrorCode.exit
  %vtable.i = load ptr, ptr %call4, align 8
  %vfn.i = getelementptr inbounds i8, ptr %vtable.i, i64 8
  %5 = load ptr, ptr %vfn.i, align 8
  tail call void %5(ptr noundef nonnull align 8 dereferenceable(40) %call4) #15
  br label %return

return:                                           ; preds = %new.cont, %if.then.i, %delete.notnull.i, %cleanup.thread, %if.end, %entry
  %retval.1 = phi i1 [ false, %entry ], [ true, %if.end ], [ true, %cleanup.thread ], [ false, %delete.notnull.i ], [ false, %if.then.i ], [ false, %new.cont ]
  ret i1 %retval.1
}